Certificate:
    Data:
        Version: 3 (0x2)
        Serial Number: 2 (0x2)
        Signature Algorithm: sha1WithRSAEncryption
        Issuer: DC=org, DC=simple, O=Simple Inc, OU=Simple Signing CA, CN=Simple Signing CA
        Validity
            Not Before: Nov  1 21:08:36 2019 GMT
            Not After : Oct 31 21:08:36 2021 GMT
        Subject: DC=org, DC=simple, O=Simple Inc, CN=www.simple.org
        Subject Public Key Info:
            Public Key Algorithm: rsaEncryption
                RSA Public-Key: (2048 bit)
                Modulus:
                    00:e1:f8:45:9c:51:0e:c8:0e:fa:48:3c:c8:81:75:
                    d9:e8:af:a2:42:21:9d:e0:ab:c6:4d:fb:e2:7b:bb:
                    b6:5c:16:d3:89:f4:97:00:bf:83:85:de:00:bf:c2:
                    88:c0:2e:bc:91:d8:b0:56:26:65:91:ee:dd:6d:d4:
                    a9:e5:51:6f:82:64:51:bf:3e:7b:86:a9:c1:96:61:
                    da:f8:d0:88:4d:96:b4:62:c7:e4:4a:fd:64:8f:05:
                    e9:ce:2d:b2:eb:53:f1:82:52:48:a9:81:6c:27:33:
                    2e:c3:da:90:1e:b6:f6:77:64:ae:51:0c:3a:08:13:
                    5b:a9:33:e7:e7:42:15:82:04:0c:c5:06:d7:22:ba:
                    19:67:55:80:3f:68:0f:3c:f4:a4:a4:7e:2d:bf:55:
                    3a:cb:a5:ef:2c:33:f9:f2:03:07:4a:2e:fc:4c:ae:
                    3c:a3:a6:3a:c8:79:d8:8a:b3:aa:be:0f:00:ab:10:
                    8d:ec:c6:18:b0:58:63:f0:1b:23:4a:60:40:89:7c:
                    c0:cb:e5:9b:bf:98:29:03:ff:e5:de:2e:67:36:f7:
                    37:52:c1:ac:49:e7:cc:79:5d:b5:58:b4:91:49:f4:
                    29:a2:b8:5c:91:f8:06:5d:3e:2d:b5:50:a5:e3:ed:
                    47:b3:9e:09:31:31:5b:a2:94:d3:56:6f:c4:84:82:
                    0a:a5
                Exponent: 65537 (0x10001)
        X509v3 extensions:
            X509v3 Key Usage: critical
                Digital Signature, Key Encipherment
            X509v3 Basic Constraints: 
                CA:FALSE
            X509v3 Extended Key Usage: 
                TLS Web Server Authentication, TLS Web Client Authentication
            X509v3 Subject Key Identifier: 
                20:2D:18:D6:94:26:CB:48:E8:82:40:BB:0A:A2:07:66:05:E8:A0:C3
            X509v3 Authority Key Identifier: 
                keyid:C3:58:28:C2:1F:85:99:AF:7B:AF:EC:5C:6C:62:18:DA:C8:5B:D4:4A

            X509v3 Subject Alternative Name: 
                DNS:www.simple.org
    Signature Algorithm: sha1WithRSAEncryption
         b4:20:f0:eb:6c:0e:3c:d6:d1:cf:8d:70:bd:28:c9:88:2e:1a:
         3f:c4:59:bc:d2:f1:c5:c4:9d:d8:f6:c2:f8:91:e1:c5:c1:43:
         c6:1c:25:48:4e:1b:cc:d6:d9:36:5d:cc:d9:82:d3:8b:e1:05:
         be:3c:81:a1:e3:54:77:61:61:6b:13:3a:36:8d:5a:d1:37:e4:
         ee:71:80:ae:c4:08:af:34:86:da:59:12:c8:6b:a7:6c:ca:ec:
         d7:bc:e4:11:77:bf:2b:9f:58:be:db:24:04:3f:41:f4:a0:ed:
         30:31:39:dc:b5:dc:52:59:ec:cf:23:35:44:78:ce:e0:84:a8:
         82:79:0b:a7:aa:1a:e5:e2:f5:56:37:a9:75:bb:08:38:33:2e:
         7c:30:2e:5e:84:b1:91:b4:4b:76:3b:14:9d:cf:b3:79:35:42:
         9c:f2:14:9b:38:5b:77:4b:9d:0c:d5:78:24:20:33:cd:31:3d:
         4e:a8:60:ab:07:02:18:58:4d:e5:10:e6:69:b9:86:95:83:9b:
         02:a7:8f:cd:8f:6e:2a:15:f8:7e:eb:2c:ea:02:3e:c2:1b:70:
         13:cc:47:fc:8e:75:16:37:c0:59:6d:9d:d4:5b:40:1c:fd:af:
         04:2c:e0:15:b2:eb:89:6f:28:8b:ed:8c:8b:5b:79:92:af:ce:
         13:ef:96:11
-----BEGIN CERTIFICATE-----
MIID6TCCAtGgAwIBAgIBAjANBgkqhkiG9w0BAQUFADB6MRMwEQYKCZImiZPyLGQB
GRYDb3JnMRYwFAYKCZImiZPyLGQBGRYGc2ltcGxlMRMwEQYDVQQKDApTaW1wbGUg
SW5jMRowGAYDVQQLDBFTaW1wbGUgU2lnbmluZyBDQTEaMBgGA1UEAwwRU2ltcGxl
IFNpZ25pbmcgQ0EwHhcNMTkxMTAxMjEwODM2WhcNMjExMDMxMjEwODM2WjBbMRMw
EQYKCZImiZPyLGQBGRYDb3JnMRYwFAYKCZImiZPyLGQBGRYGc2ltcGxlMRMwEQYD
VQQKDApTaW1wbGUgSW5jMRcwFQYDVQQDDA53d3cuc2ltcGxlLm9yZzCCASIwDQYJ
KoZIhvcNAQEBBQADggEPADCCAQoCggEBAOH4RZxRDsgO+kg8yIF12eivokIhneCr
xk374nu7tlwW04n0lwC/g4XeAL/CiMAuvJHYsFYmZZHu3W3UqeVRb4JkUb8+e4ap
wZZh2vjQiE2WtGLH5Er9ZI8F6c4tsutT8YJSSKmBbCczLsPakB629ndkrlEMOggT
W6kz5+dCFYIEDMUG1yK6GWdVgD9oDzz0pKR+Lb9VOsul7ywz+fIDB0ou/EyuPKOm
Osh52Iqzqr4PAKsQjezGGLBYY/AbI0pgQIl8wMvlm7+YKQP/5d4uZzb3N1LBrEnn
zHldtVi0kUn0KaK4XJH4Bl0+LbVQpePtR7OeCTExW6KU01ZvxISCCqUCAwEAAaOB
mDCBlTAOBgNVHQ8BAf8EBAMCBaAwCQYDVR0TBAIwADAdBgNVHSUEFjAUBggrBgEF
BQcDAQYIKwYBBQUHAwIwHQYDVR0OBBYEFCAtGNaUJstI6IJAuwqiB2YF6KDDMB8G
A1UdIwQYMBaAFMNYKMIfhZmve6/sXGxiGNrIW9RKMBkGA1UdEQQSMBCCDnd3dy5z
aW1wbGUub3JnMA0GCSqGSIb3DQEBBQUAA4IBAQC0IPDrbA481tHPjXC9KMmILho/
xFm80vHFxJ3Y9sL4keHFwUPGHCVIThvM1tk2XczZgtOL4QW+PIGh41R3YWFrEzo2
jVrRN+TucYCuxAivNIbaWRLIa6dsyuzXvOQRd78rn1i+2yQEP0H0oO0wMTnctdxS
WezPIzVEeM7ghKiCeQunqhrl4vVWN6l1uwg4My58MC5ehLGRtEt2OxSdz7N5NUKc
8hSbOFt3S50M1XgkIDPNMT1OqGCrBwIYWE3lEOZpuYaVg5sCp4/Nj24qFfh+6yzq
Aj7CG3ATzEf8jnUWN8BZbZ3UW0Ac/a8ELOAVsuuJbyiL7YyLW3mSr84T75YR
-----END CERTIFICATE-----
