-----BEGIN ENCRYPTED PRIVATE KEY-----
MIIFHDBOBgkqhkiG9w0BBQ0wQTApBgkqhkiG9w0BBQwwHAQIwjN3bTpzwsICAggA
MAwGCCqGSIb3DQIJBQAwFAYIKoZIhvcNAwcECAJW+7o300V4BIIEyJcqXV0eITKa
gEwoxdLV6/nerKKoF71FiUdMqKuRU/6aPUOZvHbI5vqdwTAq30boYHfE5ckWYtCF
izXOuu5BxOxcGr1lTDdsxn9ofzN/peu8VHU5iIgNFYcB4O/UUi0EYBgJ5PskjFrI
udhoBm9QpmTE+2Y26Gm10Rb481kxRcMTjee/YX2T5BEFb4Z+8VXdR+9GdFbcxpyQ
vO0EwokxeFjTdVmYg99+1m9ME3Wzsp+JUvDmfzqAz/EF7w3qvyhGXBxOZWeCB1AQ
PkC9ANQChEfPf2XTEfx7dqrsUBNOT3ZQp9DbB5gcYoZGEeKLqvrPL6CnBwq9d69i
KHrTeCq4h1bP6j6YvgPI2p8PwgEGTErfjvG2oIdag23LXwOvoUc+m5x50TC1kiXF
oTq3it9EUHVUdhJ0uWQf4oxiq3VXYGp+9/ZcGCamAOzPgu6V3osUb9AH+xwb/PI1
6EGlhgqaNwNWtJtfeB4RJhmn15GlNSswkbPrMGEAzzN0t840eUz8jcuUqCkKPg/b
oMrFKYDjIvBSmOFmBONoXWwMY0lHWa8nJvqAyw8aXJdvWyedmAMM8Sh9j8Zb+j6C
d6zVmTXYY9rk2GeW2rX7SXoMAHZl4+I277xeADgHRrusWQ95pzApJJwxMJU32mIr
GPXdkne0K1VYXuH8ZQStqMxeJ8VoXJ9bSrx/A9GqSK8FnafwT4veq+jUngdIwR6s
C5WR88ADQuMMtg7iPj7Zx0kH/mJuloU9+gu2shK6lwlRA1TgxUntx+n4v6OiZwps
KXb3uAzHzdm4RYeByp2h0VtjDxf+FFwS1tAFGdWC3Xq2X3+O8LqjD1R63L78WLEa
h0Ad8eNBcJinFVXWpBm7y5ylXEgnmEKlANqiHPsLumbVE6htVJrfqnwJSh7pryD9
fab1Lq4F1DRFRV3eV/yT4LXtpi1+wTRxnapuSMGHk0GQCuSCvxd4aTHfaDH5Nacs
AvdX+9tF0ZG5rU8zvpP+md779ttYYKzKj+fKXxcpycS1tHrfkR1/UJw079yFTXEv
4RMcB1nFAdEbHwFioqPWzxbU5y7hZ8NkaZkk5YlYv+uvQXMlyNDc43vuxzJGS9Oc
P1XDWbZuQUDiUxcSI4XE9bg/d22TOXi3D0Nse8IRDIqEM6/vM9kwSsqxmK3fJDLW
cVqxONce1+3hdDG7ursdNS1VKxl1LN2TmrQ7w2AY4ZYl0f3BIkyKxTcCh2twLYhs
oGu382J0NE6lg1Nt6wk+HF09wZ1OsiFBqtmP4iRE592ML3oxzr/6t8+m+fjVvnEQ
mt54OZ8I5uRtuqXPB5XlAyCyVsYNpa4mH5Uom3B0HyvcF9iz7YyztE60TOLLo0BU
jvAmciLiaU4n3efaivziPxGldYiyYQMVOGOaQVPGLTImQW+tbdLBiJWyMMQF8/no
wnLkLiLub60y7I5e9dwU4etrHAVS9udXXOcvAoeLMXyySYE0gFTzsebqEVTC+xWt
0UIvEsmA2f74Vk5DL0QCqjtKmOg4AC3LWDejfVhHiPDaW51x+23CuWLgyPuhw/Ky
fjtD69+7vnnLMfGXu5YmEs/IzydJqT3pTGXfmqXu0VN+ezNYgqPNnYaEMoPLe0/X
9s6z5gaYGBdyVvhiEZzBPA==
-----END ENCRYPTED PRIVATE KEY-----
Certificate:
    Data:
        Version: 3 (0x2)
        Serial Number: 1 (0x1)
        Signature Algorithm: sha1WithRSAEncryption
        Issuer: DC=org, DC=simple, O=Simple Inc, OU=Simple Signing CA, CN=Simple Signing CA
        Validity
            Not Before: Nov  1 21:05:08 2019 GMT
            Not After : Oct 31 21:05:08 2021 GMT
        Subject: DC=org, DC=simple, O=Simple Inc, CN=Fred Flintstone
        Subject Public Key Info:
            Public Key Algorithm: rsaEncryption
                RSA Public-Key: (2048 bit)
                Modulus:
                    00:b8:4f:74:7b:6c:18:e4:4b:64:84:30:67:b8:a9:
                    78:63:2b:6a:7b:d3:7c:d2:80:2f:c0:8a:0b:56:0e:
                    ab:5c:bd:89:1f:68:0b:65:9a:73:a7:78:81:cd:b2:
                    3a:91:a0:10:4b:83:89:99:e6:e7:bc:15:be:b7:fc:
                    9b:73:61:00:f1:d0:fa:5c:38:53:ae:6c:a6:35:f3:
                    8c:8f:a8:1e:0c:e1:fe:db:85:ba:11:c6:98:90:97:
                    22:15:24:0b:88:9b:77:ee:b2:0c:73:14:10:bc:f6:
                    6d:69:47:f9:c2:c8:fe:fa:2f:0a:e9:d8:7f:98:36:
                    d2:9a:dc:2e:92:33:67:db:d4:22:3e:22:8a:c5:97:
                    22:43:ba:d0:98:0f:73:9b:32:ac:86:a7:44:54:cf:
                    0b:87:4f:c2:5c:08:21:3e:5a:49:ea:94:c8:a8:0b:
                    e9:cb:81:52:86:2b:a6:7c:de:09:de:ea:08:9f:29:
                    ef:25:9d:35:76:d0:f4:ed:e3:ce:f7:50:79:5b:11:
                    6d:6e:fb:96:f7:cf:12:b0:f0:f5:91:cd:ab:3a:b4:
                    da:d2:7b:c7:a5:75:8e:37:b5:50:07:0f:90:40:a1:
                    90:db:b0:ef:8d:9f:7b:c8:1f:69:43:fc:5e:3d:0c:
                    9b:0d:ea:74:5f:5a:61:4b:69:7f:40:48:04:9d:e4:
                    00:69
                Exponent: 65537 (0x10001)
        X509v3 extensions:
            X509v3 Key Usage: critical
                Digital Signature, Key Encipherment
            X509v3 Basic Constraints: 
                CA:FALSE
            X509v3 Extended Key Usage: 
                E-mail Protection, TLS Web Client Authentication
            X509v3 Subject Key Identifier: 
                E0:A6:09:70:A6:D4:A9:C0:EC:D3:A5:6A:40:00:7C:A2:33:00:39:8A
            X509v3 Authority Key Identifier: 
                keyid:C3:58:28:C2:1F:85:99:AF:7B:AF:EC:5C:6C:62:18:DA:C8:5B:D4:4A

            X509v3 Subject Alternative Name: 
                email:fred@simple.org
    Signature Algorithm: sha1WithRSAEncryption
         0c:b9:ab:a9:e8:4d:6e:31:e1:a0:8b:71:b2:c0:55:07:77:54:
         1c:87:70:24:70:72:fb:ac:c9:e0:51:6c:74:8c:20:c8:d9:32:
         75:cd:65:fd:96:f1:ec:92:f8:d5:b9:13:a3:58:57:81:db:cc:
         40:5e:c6:16:d7:1b:9d:94:fa:d4:37:53:c2:3c:b0:59:f6:ff:
         49:fa:9e:99:2f:4f:3a:1a:81:47:cf:a6:9c:f8:95:4b:d7:8b:
         f5:df:2f:39:7a:79:cb:de:a5:78:44:e0:c9:59:90:ad:e0:14:
         96:2b:68:96:af:90:f2:7c:ee:c4:8f:9e:ec:2e:f5:3e:d9:4d:
         54:6a:46:e6:f9:d0:5c:81:fe:22:e5:fa:23:84:fe:90:c2:6d:
         c8:7c:eb:10:1e:b6:31:ec:02:21:45:78:2d:fb:a4:ac:03:a3:
         f2:cb:42:c9:28:27:f5:b3:b6:26:90:af:db:bf:3b:dd:dc:09:
         ca:d0:13:59:ee:42:db:59:18:da:b3:fd:9e:dc:38:06:0b:c3:
         cb:3b:ce:70:f6:2e:c9:56:bf:17:54:c8:7a:35:4d:a5:64:9c:
         ef:d9:2d:ad:18:20:ee:6b:c1:1e:3f:f6:2f:16:e3:ec:a2:65:
         a3:d0:95:1a:2a:ec:6c:f2:6f:68:3d:b2:4c:b0:c8:18:a4:4d:
         d5:d0:8b:14
-----BEGIN CERTIFICATE-----
MIID6zCCAtOgAwIBAgIBATANBgkqhkiG9w0BAQUFADB6MRMwEQYKCZImiZPyLGQB
GRYDb3JnMRYwFAYKCZImiZPyLGQBGRYGc2ltcGxlMRMwEQYDVQQKDApTaW1wbGUg
SW5jMRowGAYDVQQLDBFTaW1wbGUgU2lnbmluZyBDQTEaMBgGA1UEAwwRU2ltcGxl
IFNpZ25pbmcgQ0EwHhcNMTkxMTAxMjEwNTA4WhcNMjExMDMxMjEwNTA4WjBcMRMw
EQYKCZImiZPyLGQBGRYDb3JnMRYwFAYKCZImiZPyLGQBGRYGc2ltcGxlMRMwEQYD
VQQKDApTaW1wbGUgSW5jMRgwFgYDVQQDDA9GcmVkIEZsaW50c3RvbmUwggEiMA0G
CSqGSIb3DQEBAQUAA4IBDwAwggEKAoIBAQC4T3R7bBjkS2SEMGe4qXhjK2p703zS
gC/AigtWDqtcvYkfaAtlmnOneIHNsjqRoBBLg4mZ5ue8Fb63/JtzYQDx0PpcOFOu
bKY184yPqB4M4f7bhboRxpiQlyIVJAuIm3fusgxzFBC89m1pR/nCyP76Lwrp2H+Y
NtKa3C6SM2fb1CI+IorFlyJDutCYD3ObMqyGp0RUzwuHT8JcCCE+WknqlMioC+nL
gVKGK6Z83gne6gifKe8lnTV20PTt4873UHlbEW1u+5b3zxKw8PWRzas6tNrSe8el
dY43tVAHD5BAoZDbsO+Nn3vIH2lD/F49DJsN6nRfWmFLaX9ASASd5ABpAgMBAAGj
gZkwgZYwDgYDVR0PAQH/BAQDAgWgMAkGA1UdEwQCMAAwHQYDVR0lBBYwFAYIKwYB
BQUHAwQGCCsGAQUFBwMCMB0GA1UdDgQWBBTgpglwptSpwOzTpWpAAHyiMwA5ijAf
BgNVHSMEGDAWgBTDWCjCH4WZr3uv7FxsYhjayFvUSjAaBgNVHREEEzARgQ9mcmVk
QHNpbXBsZS5vcmcwDQYJKoZIhvcNAQEFBQADggEBAAy5q6noTW4x4aCLcbLAVQd3
VByHcCRwcvusyeBRbHSMIMjZMnXNZf2W8eyS+NW5E6NYV4HbzEBexhbXG52U+tQ3
U8I8sFn2/0n6npkvTzoagUfPppz4lUvXi/XfLzl6ecvepXhE4MlZkK3gFJYraJav
kPJ87sSPnuwu9T7ZTVRqRub50FyB/iLl+iOE/pDCbch86xAetjHsAiFFeC37pKwD
o/LLQskoJ/WztiaQr9u/O93cCcrQE1nuQttZGNqz/Z7cOAYLw8s7znD2LslWvxdU
yHo1TaVknO/ZLa0YIO5rwR4/9i8W4+yiZaPQlRoq7Gzyb2g9skywyBikTdXQixQ=
-----END CERTIFICATE-----
