Certificate:
    Data:
        Version: 3 (0x2)
        Serial Number: 1 (0x1)
        Signature Algorithm: sha1WithRSAEncryption
        Issuer: DC=org, DC=simple, O=Simple Inc, OU=Simple Root CA, CN=Simple Root CA
        Validity
            Not Before: Nov  1 20:57:49 2019 GMT
            Not After : Oct 31 20:57:49 2029 GMT
        Subject: DC=org, DC=simple, O=Simple Inc, OU=Simple Root CA, CN=Simple Root CA
        Subject Public Key Info:
            Public Key Algorithm: rsaEncryption
                RSA Public-Key: (2048 bit)
                Modulus:
                    00:c3:4d:ee:df:35:00:37:70:44:5c:06:b1:3b:35:
                    fa:8d:30:1c:4b:98:f1:d6:29:0f:86:93:f7:50:ea:
                    5b:95:de:31:27:a4:5e:87:81:96:dc:0c:85:c9:fc:
                    6b:6c:f5:55:34:4c:70:7f:bd:a0:9d:33:0c:bd:40:
                    26:6d:cb:da:ff:03:c6:a5:e1:16:56:d3:3f:ae:03:
                    99:a1:34:bd:32:3f:61:dc:98:e8:18:2a:34:fc:03:
                    1f:41:75:d7:2c:04:31:11:f2:35:c6:60:28:b2:a4:
                    c1:38:72:d8:18:2e:18:d8:50:cc:4b:87:a2:8d:43:
                    fe:a4:29:cd:ec:91:7e:b7:57:2e:12:83:dd:d5:05:
                    c1:b8:d9:1d:4e:65:27:09:24:7b:6f:dc:ff:7a:7f:
                    4a:f7:a5:3c:26:a4:6a:1e:71:04:5c:42:b8:98:a2:
                    69:d5:88:e9:f9:b9:4a:6c:59:31:48:d2:b6:56:22:
                    50:22:80:69:cf:04:70:02:9a:ca:d3:a3:74:58:44:
                    21:af:da:90:c8:e1:94:da:36:0f:48:83:8b:56:0f:
                    96:f7:15:ac:6d:31:8a:61:e7:86:51:61:a8:25:6a:
                    0c:4d:36:2a:4f:2a:b2:65:5b:de:c1:b9:c1:e4:85:
                    dc:a0:f2:31:c2:b3:bf:2c:fa:08:ab:3a:e9:e0:28:
                    02:67
                Exponent: 65537 (0x10001)
        X509v3 extensions:
            X509v3 Key Usage: critical
                Certificate Sign, CRL Sign
            X509v3 Basic Constraints: critical
                CA:TRUE
            X509v3 Subject Key Identifier: 
                D4:F1:4D:5A:A9:10:DD:D1:18:A1:26:C5:E0:7B:3C:89:1E:41:66:4F
            X509v3 Authority Key Identifier: 
                keyid:D4:F1:4D:5A:A9:10:DD:D1:18:A1:26:C5:E0:7B:3C:89:1E:41:66:4F

    Signature Algorithm: sha1WithRSAEncryption
         01:ad:32:f9:fa:7c:26:87:4c:46:1b:72:8d:f7:e9:b8:2c:66:
         9d:18:57:78:1f:f8:7a:bb:d5:7c:52:0d:30:3d:1a:be:33:99:
         00:15:d3:2a:63:ef:b5:20:66:4e:5f:d2:d3:fc:59:cb:6b:3f:
         66:71:5c:fd:85:db:ec:09:d0:4b:16:7a:b3:39:84:15:26:03:
         63:dc:ae:23:9b:9e:06:d9:67:68:e2:d4:a1:1f:00:32:d7:b9:
         3f:35:2a:60:08:01:8e:44:e3:8a:e2:58:e5:c9:cf:5e:55:40:
         fb:be:0d:97:64:39:f8:6c:8d:15:35:26:49:2b:43:7e:7b:e7:
         f1:df:04:fa:a7:f2:e0:e6:49:b0:e4:03:7a:eb:35:1c:ba:e8:
         bb:5b:0a:cc:06:6d:95:f5:bc:af:31:2e:96:3e:e0:2e:ef:95:
         a4:d4:32:f6:5f:dd:b4:ab:b2:cc:9d:ae:b4:d1:31:63:3d:59:
         e3:66:61:71:ab:6a:fa:43:75:7c:21:84:dc:65:8a:c2:c5:14:
         8f:2b:0c:15:53:2e:23:eb:2e:ff:dd:d6:ef:09:c9:c3:fe:e7:
         2a:0b:b0:68:0e:1b:db:a6:96:8c:30:6d:40:30:f9:db:7b:f1:
         32:be:91:27:bd:45:e9:a8:bc:5d:c9:49:3e:bf:b9:f6:3d:71:
         b0:09:b0:8d
-----BEGIN CERTIFICATE-----
MIIDxjCCAq6gAwIBAgIBATANBgkqhkiG9w0BAQUFADB0MRMwEQYKCZImiZPyLGQB
GRYDb3JnMRYwFAYKCZImiZPyLGQBGRYGc2ltcGxlMRMwEQYDVQQKDApTaW1wbGUg
SW5jMRcwFQYDVQQLDA5TaW1wbGUgUm9vdCBDQTEXMBUGA1UEAwwOU2ltcGxlIFJv
b3QgQ0EwHhcNMTkxMTAxMjA1NzQ5WhcNMjkxMDMxMjA1NzQ5WjB0MRMwEQYKCZIm
iZPyLGQBGRYDb3JnMRYwFAYKCZImiZPyLGQBGRYGc2ltcGxlMRMwEQYDVQQKDApT
aW1wbGUgSW5jMRcwFQYDVQQLDA5TaW1wbGUgUm9vdCBDQTEXMBUGA1UEAwwOU2lt
cGxlIFJvb3QgQ0EwggEiMA0GCSqGSIb3DQEBAQUAA4IBDwAwggEKAoIBAQDDTe7f
NQA3cERcBrE7NfqNMBxLmPHWKQ+Gk/dQ6luV3jEnpF6HgZbcDIXJ/Gts9VU0THB/
vaCdMwy9QCZty9r/A8al4RZW0z+uA5mhNL0yP2HcmOgYKjT8Ax9BddcsBDER8jXG
YCiypME4ctgYLhjYUMxLh6KNQ/6kKc3skX63Vy4Sg93VBcG42R1OZScJJHtv3P96
f0r3pTwmpGoecQRcQriYomnViOn5uUpsWTFI0rZWIlAigGnPBHACmsrTo3RYRCGv
2pDI4ZTaNg9Ig4tWD5b3FaxtMYph54ZRYaglagxNNipPKrJlW97BucHkhdyg8jHC
s78s+girOungKAJnAgMBAAGjYzBhMA4GA1UdDwEB/wQEAwIBBjAPBgNVHRMBAf8E
BTADAQH/MB0GA1UdDgQWBBTU8U1aqRDd0RihJsXgezyJHkFmTzAfBgNVHSMEGDAW
gBTU8U1aqRDd0RihJsXgezyJHkFmTzANBgkqhkiG9w0BAQUFAAOCAQEAAa0y+fp8
JodMRhtyjffpuCxmnRhXeB/4ervVfFINMD0avjOZABXTKmPvtSBmTl/S0/xZy2s/
ZnFc/YXb7AnQSxZ6szmEFSYDY9yuI5ueBtlnaOLUoR8AMte5PzUqYAgBjkTjiuJY
5cnPXlVA+74Nl2Q5+GyNFTUmSStDfnvn8d8E+qfy4OZJsOQDeus1HLrou1sKzAZt
lfW8rzEulj7gLu+VpNQy9l/dtKuyzJ2utNExYz1Z42Zhcatq+kN1fCGE3GWKwsUU
jysMFVMuI+su/93W7wnJw/7nKguwaA4b26aWjDBtQDD523vxMr6RJ71F6ai8XclJ
Pr+59j1xsAmwjQ==
-----END CERTIFICATE-----
