Certificate:
    Data:
        Version: 3 (0x2)
        Serial Number: 2 (0x2)
        Signature Algorithm: sha1WithRSAEncryption
        Issuer: DC=org, DC=simple, O=Simple Inc, OU=Simple Root CA, CN=Simple Root CA
        Validity
            Not Before: Nov  1 21:00:46 2019 GMT
            Not After : Oct 31 21:00:46 2029 GMT
        Subject: DC=org, DC=simple, O=Simple Inc, OU=Simple Signing CA, CN=Simple Signing CA
        Subject Public Key Info:
            Public Key Algorithm: rsaEncryption
                RSA Public-Key: (2048 bit)
                Modulus:
                    00:cf:60:d4:d5:9a:b2:3f:50:4b:0d:75:5a:07:81:
                    9b:57:68:2d:18:6c:3e:7f:8f:d3:2b:91:08:3e:0d:
                    38:58:a5:47:8a:41:d9:9c:73:fa:44:1b:b0:43:a5:
                    94:b5:d7:bb:b6:e8:6e:45:77:b2:2b:c9:85:8a:11:
                    e6:64:cf:1b:8d:51:43:8e:61:6d:02:72:58:bf:32:
                    87:2f:3f:55:13:54:6e:65:8a:10:49:df:d6:9a:05:
                    36:85:16:37:ab:0b:34:a5:5a:81:07:6a:1a:76:3d:
                    05:ed:21:94:25:d4:4a:42:12:32:ac:75:68:e0:aa:
                    05:d8:7a:24:34:32:e7:86:09:c7:59:df:d2:74:2c:
                    f2:bc:bd:57:0e:82:19:f4:fe:03:67:33:90:b4:e3:
                    58:81:34:33:b3:f7:34:b4:32:11:12:1e:17:6e:4a:
                    99:7e:e2:66:b1:44:b6:44:cb:1a:f2:a5:2d:02:c1:
                    54:d6:15:72:c3:23:e6:ff:8b:18:94:25:42:2a:12:
                    eb:fb:30:16:17:57:68:21:3d:9d:a8:39:fb:8a:d9:
                    cf:60:42:28:f0:8e:a3:a2:06:c2:3f:ab:b3:03:f3:
                    65:b2:c1:2d:e8:f2:75:5d:89:e1:bf:30:18:99:98:
                    aa:59:99:4c:87:8c:3e:2f:30:7e:bf:4a:6e:45:79:
                    bd:79
                Exponent: 65537 (0x10001)
        X509v3 extensions:
            X509v3 Key Usage: critical
                Certificate Sign, CRL Sign
            X509v3 Basic Constraints: critical
                CA:TRUE, pathlen:0
            X509v3 Subject Key Identifier: 
                C3:58:28:C2:1F:85:99:AF:7B:AF:EC:5C:6C:62:18:DA:C8:5B:D4:4A
            X509v3 Authority Key Identifier: 
                keyid:D4:F1:4D:5A:A9:10:DD:D1:18:A1:26:C5:E0:7B:3C:89:1E:41:66:4F

    Signature Algorithm: sha1WithRSAEncryption
         21:27:92:b1:c3:9f:a9:45:28:3c:a7:35:12:5c:b6:54:6b:c2:
         e3:29:72:2c:d1:88:59:29:00:cd:cb:7b:dd:6c:93:31:f6:3c:
         89:7c:99:a7:6b:a4:00:7f:a7:9d:e1:01:4d:d6:38:e8:e8:15:
         4b:59:93:6b:95:09:5f:63:c5:18:95:5c:5c:8e:28:7b:1a:c4:
         26:36:df:6a:18:e6:c7:17:29:5e:6f:72:26:45:0a:98:ba:45:
         90:a8:6c:bf:5b:44:cc:71:1a:4f:fa:eb:9b:41:15:01:e6:d9:
         a0:9f:67:20:4d:3a:1d:9d:d2:72:19:23:21:51:97:30:88:6f:
         98:31:2c:41:b9:bb:01:b4:bc:33:94:27:4c:8b:40:b6:02:85:
         fd:ad:36:04:a3:f6:32:c2:4f:d1:52:28:f1:8f:ec:41:eb:71:
         40:2b:a9:07:7d:44:4f:c4:d1:3c:a1:3c:73:27:c2:42:29:57:
         65:d0:ac:77:23:80:51:ed:f7:b6:81:a3:fe:89:b6:eb:1a:24:
         dd:13:c7:ff:a9:1f:76:15:0e:4d:eb:c4:9d:c6:e3:df:62:31:
         7d:52:24:b9:3c:06:02:22:0e:fa:dc:a3:36:34:c9:78:de:ef:
         b2:3f:64:a4:ea:1d:f1:eb:be:c4:54:f3:22:a9:06:96:7b:01:
         fc:64:29:75
-----BEGIN CERTIFICATE-----
MIIDzzCCAregAwIBAgIBAjANBgkqhkiG9w0BAQUFADB0MRMwEQYKCZImiZPyLGQB
GRYDb3JnMRYwFAYKCZImiZPyLGQBGRYGc2ltcGxlMRMwEQYDVQQKDApTaW1wbGUg
SW5jMRcwFQYDVQQLDA5TaW1wbGUgUm9vdCBDQTEXMBUGA1UEAwwOU2ltcGxlIFJv
b3QgQ0EwHhcNMTkxMTAxMjEwMDQ2WhcNMjkxMDMxMjEwMDQ2WjB6MRMwEQYKCZIm
iZPyLGQBGRYDb3JnMRYwFAYKCZImiZPyLGQBGRYGc2ltcGxlMRMwEQYDVQQKDApT
aW1wbGUgSW5jMRowGAYDVQQLDBFTaW1wbGUgU2lnbmluZyBDQTEaMBgGA1UEAwwR
U2ltcGxlIFNpZ25pbmcgQ0EwggEiMA0GCSqGSIb3DQEBAQUAA4IBDwAwggEKAoIB
AQDPYNTVmrI/UEsNdVoHgZtXaC0YbD5/j9MrkQg+DThYpUeKQdmcc/pEG7BDpZS1
17u26G5Fd7IryYWKEeZkzxuNUUOOYW0Ccli/MocvP1UTVG5lihBJ39aaBTaFFjer
CzSlWoEHahp2PQXtIZQl1EpCEjKsdWjgqgXYeiQ0MueGCcdZ39J0LPK8vVcOghn0
/gNnM5C041iBNDOz9zS0MhESHhduSpl+4maxRLZEyxrypS0CwVTWFXLDI+b/ixiU
JUIqEuv7MBYXV2ghPZ2oOfuK2c9gQijwjqOiBsI/q7MD82WywS3o8nVdieG/MBiZ
mKpZmUyHjD4vMH6/Sm5Feb15AgMBAAGjZjBkMA4GA1UdDwEB/wQEAwIBBjASBgNV
HRMBAf8ECDAGAQH/AgEAMB0GA1UdDgQWBBTDWCjCH4WZr3uv7FxsYhjayFvUSjAf
BgNVHSMEGDAWgBTU8U1aqRDd0RihJsXgezyJHkFmTzANBgkqhkiG9w0BAQUFAAOC
AQEAISeSscOfqUUoPKc1Ely2VGvC4ylyLNGIWSkAzct73WyTMfY8iXyZp2ukAH+n
neEBTdY46OgVS1mTa5UJX2PFGJVcXI4oexrEJjbfahjmxxcpXm9yJkUKmLpFkKhs
v1tEzHEaT/rrm0EVAebZoJ9nIE06HZ3SchkjIVGXMIhvmDEsQbm7AbS8M5QnTItA
tgKF/a02BKP2MsJP0VIo8Y/sQetxQCupB31ET8TRPKE8cyfCQilXZdCsdyOAUe33
toGj/om26xok3RPH/6kfdhUOTevEncbj32IxfVIkuTwGAiIO+tyjNjTJeN7vsj9k
pOod8eu+xFTzIqkGlnsB/GQpdQ==
-----END CERTIFICATE-----
